target datalayout = "e-m:e-p270:32:32-p271:32:32-p272:64:64-i64:64-i128:128-f80:128-n8:16:32:64-S128"
target triple = "x86_64-pc-linux-gnu"

%struct.anon = type { i32, [0 x i8] }
%struct.varattrib_1b = type { i8, [0 x i8] }
%struct.varattrib_1b_e = type { i8, i8, [0 x i8] }

; Function Attrs: nounwind uwtable
define internal ptr @text_catenate(ptr noundef %0, ptr noundef %1) #1 {
  %3 = alloca ptr, align 8
  %4 = alloca ptr, align 8
  %5 = alloca ptr, align 8
  %6 = alloca i32, align 4
  %7 = alloca i32, align 4
  %8 = alloca i32, align 4
  %9 = alloca ptr, align 8
  store ptr %0, ptr %3, align 8
  store ptr %1, ptr %4, align 8
  call void @llvm.lifetime.start.p0(i64 8, ptr %5) #13
  call void @llvm.lifetime.start.p0(i64 4, ptr %6) #13
  call void @llvm.lifetime.start.p0(i64 4, ptr %7) #13
  call void @llvm.lifetime.start.p0(i64 4, ptr %8) #13
  call void @llvm.lifetime.start.p0(i64 8, ptr %9) #13
  %10 = load ptr, ptr %3, align 8
  %11 = getelementptr inbounds nuw %struct.varattrib_1b, ptr %10, i32 0, i32 0
  %12 = load i8, ptr %11, align 1
  %13 = zext i8 %12 to i32
  %14 = icmp eq i32 %13, 1
  br i1 %14, label %15, label %43

15:                                               ; preds = %2
  %16 = load ptr, ptr %3, align 8
  %17 = getelementptr inbounds nuw %struct.varattrib_1b_e, ptr %16, i32 0, i32 1
  %18 = load i8, ptr %17, align 1
  %19 = zext i8 %18 to i32
  %20 = icmp eq i32 %19, 1
  br i1 %20, label %21, label %22

21:                                               ; preds = %15
  br label %39

22:                                               ; preds = %15
  %23 = load ptr, ptr %3, align 8
  %24 = getelementptr inbounds nuw %struct.varattrib_1b_e, ptr %23, i32 0, i32 1
  %25 = load i8, ptr %24, align 1
  %26 = zext i8 %25 to i32
  %27 = and i32 %26, -2
  %28 = icmp eq i32 %27, 2
  br i1 %28, label %29, label %30

29:                                               ; preds = %22
  br label %37

30:                                               ; preds = %22
  %31 = load ptr, ptr %3, align 8
  %32 = getelementptr inbounds nuw %struct.varattrib_1b_e, ptr %31, i32 0, i32 1
  %33 = load i8, ptr %32, align 1
  %34 = zext i8 %33 to i32
  %35 = icmp eq i32 %34, 18
  %36 = select i1 %35, i64 16, i64 0
  br label %37

37:                                               ; preds = %30, %29
  %38 = phi i64 [ 8, %29 ], [ %36, %30 ]
  br label %39

39:                                               ; preds = %37, %21
  %40 = phi i64 [ 8, %21 ], [ %38, %37 ]
  %41 = add i64 2, %40
  %42 = sub i64 %41, 2
  br label %69

43:                                               ; preds = %2
  %44 = load ptr, ptr %3, align 8
  %45 = getelementptr inbounds nuw %struct.varattrib_1b, ptr %44, i32 0, i32 0
  %46 = load i8, ptr %45, align 1
  %47 = zext i8 %46 to i32
  %48 = and i32 %47, 1
  %49 = icmp eq i32 %48, 1
  br i1 %49, label %50, label %59

50:                                               ; preds = %43
  %51 = load ptr, ptr %3, align 8
  %52 = getelementptr inbounds nuw %struct.varattrib_1b, ptr %51, i32 0, i32 0
  %53 = load i8, ptr %52, align 1
  %54 = zext i8 %53 to i32
  %55 = ashr i32 %54, 1
  %56 = and i32 %55, 127
  %57 = sext i32 %56 to i64
  %58 = sub i64 %57, 1
  br label %67

59:                                               ; preds = %43
  %60 = load ptr, ptr %3, align 8
  %61 = getelementptr inbounds nuw %struct.anon, ptr %60, i32 0, i32 0
  %62 = load i32, ptr %61, align 4
  %63 = lshr i32 %62, 2
  %64 = and i32 %63, 1073741823
  %65 = sub i32 %64, 4
  %66 = zext i32 %65 to i64
  br label %67

67:                                               ; preds = %59, %50
  %68 = phi i64 [ %58, %50 ], [ %66, %59 ]
  br label %69

69:                                               ; preds = %67, %39
  %70 = phi i64 [ %42, %39 ], [ %68, %67 ]
  %71 = trunc i64 %70 to i32
  store i32 %71, ptr %6, align 4
  %72 = load ptr, ptr %4, align 8
  %73 = getelementptr inbounds nuw %struct.varattrib_1b, ptr %72, i32 0, i32 0
  %74 = load i8, ptr %73, align 1
  %75 = zext i8 %74 to i32
  %76 = icmp eq i32 %75, 1
  br i1 %76, label %77, label %105

77:                                               ; preds = %69
  %78 = load ptr, ptr %4, align 8
  %79 = getelementptr inbounds nuw %struct.varattrib_1b_e, ptr %78, i32 0, i32 1
  %80 = load i8, ptr %79, align 1
  %81 = zext i8 %80 to i32
  %82 = icmp eq i32 %81, 1
  br i1 %82, label %83, label %84

83:                                               ; preds = %77
  br label %101

84:                                               ; preds = %77
  %85 = load ptr, ptr %4, align 8
  %86 = getelementptr inbounds nuw %struct.varattrib_1b_e, ptr %85, i32 0, i32 1
  %87 = load i8, ptr %86, align 1
  %88 = zext i8 %87 to i32
  %89 = and i32 %88, -2
  %90 = icmp eq i32 %89, 2
  br i1 %90, label %91, label %92

91:                                               ; preds = %84
  br label %99

92:                                               ; preds = %84
  %93 = load ptr, ptr %4, align 8
  %94 = getelementptr inbounds nuw %struct.varattrib_1b_e, ptr %93, i32 0, i32 1
  %95 = load i8, ptr %94, align 1
  %96 = zext i8 %95 to i32
  %97 = icmp eq i32 %96, 18
  %98 = select i1 %97, i64 16, i64 0
  br label %99

99:                                               ; preds = %92, %91
  %100 = phi i64 [ 8, %91 ], [ %98, %92 ]
  br label %101

101:                                              ; preds = %99, %83
  %102 = phi i64 [ 8, %83 ], [ %100, %99 ]
  %103 = add i64 2, %102
  %104 = sub i64 %103, 2
  br label %131

105:                                              ; preds = %69
  %106 = load ptr, ptr %4, align 8
  %107 = getelementptr inbounds nuw %struct.varattrib_1b, ptr %106, i32 0, i32 0
  %108 = load i8, ptr %107, align 1
  %109 = zext i8 %108 to i32
  %110 = and i32 %109, 1
  %111 = icmp eq i32 %110, 1
  br i1 %111, label %112, label %121

112:                                              ; preds = %105
  %113 = load ptr, ptr %4, align 8
  %114 = getelementptr inbounds nuw %struct.varattrib_1b, ptr %113, i32 0, i32 0
  %115 = load i8, ptr %114, align 1
  %116 = zext i8 %115 to i32
  %117 = ashr i32 %116, 1
  %118 = and i32 %117, 127
  %119 = sext i32 %118 to i64
  %120 = sub i64 %119, 1
  br label %129

121:                                              ; preds = %105
  %122 = load ptr, ptr %4, align 8
  %123 = getelementptr inbounds nuw %struct.anon, ptr %122, i32 0, i32 0
  %124 = load i32, ptr %123, align 4
  %125 = lshr i32 %124, 2
  %126 = and i32 %125, 1073741823
  %127 = sub i32 %126, 4
  %128 = zext i32 %127 to i64
  br label %129

129:                                              ; preds = %121, %112
  %130 = phi i64 [ %120, %112 ], [ %128, %121 ]
  br label %131

131:                                              ; preds = %129, %101
  %132 = phi i64 [ %104, %101 ], [ %130, %129 ]
  %133 = trunc i64 %132 to i32
  store i32 %133, ptr %7, align 4
  %134 = load i32, ptr %6, align 4
  %135 = icmp slt i32 %134, 0
  br i1 %135, label %136, label %137

136:                                              ; preds = %131
  store i32 0, ptr %6, align 4
  br label %137

137:                                              ; preds = %136, %131
  %138 = load i32, ptr %7, align 4
  %139 = icmp slt i32 %138, 0
  br i1 %139, label %140, label %141

140:                                              ; preds = %137
  store i32 0, ptr %7, align 4
  br label %141

141:                                              ; preds = %140, %137
  %142 = load i32, ptr %6, align 4
  %143 = load i32, ptr %7, align 4
  %144 = add i32 %142, %143
  %145 = add i32 %144, 4
  store i32 %145, ptr %8, align 4
  %146 = load i32, ptr %8, align 4
  %147 = sext i32 %146 to i64
  %148 = call ptr @palloc(i64 noundef %147)
  store ptr %148, ptr %5, align 8
  %149 = load i32, ptr %8, align 4
  %150 = shl i32 %149, 2
  %151 = load ptr, ptr %5, align 8
  %152 = getelementptr inbounds nuw %struct.anon, ptr %151, i32 0, i32 0
  store i32 %150, ptr %152, align 4
  %153 = load ptr, ptr %5, align 8
  %154 = getelementptr inbounds nuw %struct.anon, ptr %153, i32 0, i32 1
  %155 = getelementptr inbounds [0 x i8], ptr %154, i64 0, i64 0
  store ptr %155, ptr %9, align 8
  %156 = load i32, ptr %6, align 4
  %157 = icmp sgt i32 %156, 0
  br i1 %157, label %158, label %178

158:                                              ; preds = %141
  %159 = load ptr, ptr %9, align 8
  %160 = load ptr, ptr %3, align 8
  %161 = getelementptr inbounds nuw %struct.varattrib_1b, ptr %160, i32 0, i32 0
  %162 = load i8, ptr %161, align 1
  %163 = zext i8 %162 to i32
  %164 = and i32 %163, 1
  %165 = icmp eq i32 %164, 1
  br i1 %165, label %166, label %170

166:                                              ; preds = %158
  %167 = load ptr, ptr %3, align 8
  %168 = getelementptr inbounds nuw %struct.varattrib_1b, ptr %167, i32 0, i32 1
  %169 = getelementptr inbounds [0 x i8], ptr %168, i64 0, i64 0
  br label %174

170:                                              ; preds = %158
  %171 = load ptr, ptr %3, align 8
  %172 = getelementptr inbounds nuw %struct.anon, ptr %171, i32 0, i32 1
  %173 = getelementptr inbounds [0 x i8], ptr %172, i64 0, i64 0
  br label %174

174:                                              ; preds = %170, %166
  %175 = phi ptr [ %169, %166 ], [ %173, %170 ]
  %176 = load i32, ptr %6, align 4
  %177 = sext i32 %176 to i64
  call void @llvm.memcpy.p0.p0.i64(ptr align 1 %159, ptr align 1 %175, i64 %177, i1 false)
  br label %178

178:                                              ; preds = %174, %141
  %179 = load i32, ptr %7, align 4
  %180 = icmp sgt i32 %179, 0
  br i1 %180, label %181, label %204

181:                                              ; preds = %178
  %182 = load ptr, ptr %9, align 8
  %183 = load i32, ptr %6, align 4
  %184 = sext i32 %183 to i64
  %185 = getelementptr inbounds i8, ptr %182, i64 %184
  %186 = load ptr, ptr %4, align 8
  %187 = getelementptr inbounds nuw %struct.varattrib_1b, ptr %186, i32 0, i32 0
  %188 = load i8, ptr %187, align 1
  %189 = zext i8 %188 to i32
  %190 = and i32 %189, 1
  %191 = icmp eq i32 %190, 1
  br i1 %191, label %192, label %196

192:                                              ; preds = %181
  %193 = load ptr, ptr %4, align 8
  %194 = getelementptr inbounds nuw %struct.varattrib_1b, ptr %193, i32 0, i32 1
  %195 = getelementptr inbounds [0 x i8], ptr %194, i64 0, i64 0
  br label %200

196:                                              ; preds = %181
  %197 = load ptr, ptr %4, align 8
  %198 = getelementptr inbounds nuw %struct.anon, ptr %197, i32 0, i32 1
  %199 = getelementptr inbounds [0 x i8], ptr %198, i64 0, i64 0
  br label %200

200:                                              ; preds = %196, %192
  %201 = phi ptr [ %195, %192 ], [ %199, %196 ]
  %202 = load i32, ptr %7, align 4
  %203 = sext i32 %202 to i64
  call void @llvm.memcpy.p0.p0.i64(ptr align 1 %185, ptr align 1 %201, i64 %203, i1 false)
  br label %204

204:                                              ; preds = %200, %178
  %205 = load ptr, ptr %5, align 8
  call void @llvm.lifetime.end.p0(i64 8, ptr %9) #13
  call void @llvm.lifetime.end.p0(i64 4, ptr %8) #13
  call void @llvm.lifetime.end.p0(i64 4, ptr %7) #13
  call void @llvm.lifetime.end.p0(i64 4, ptr %6) #13
  call void @llvm.lifetime.end.p0(i64 8, ptr %5) #13
  ret ptr %205
}