; Function Attrs: nounwind uwtable
define internal fastcc noundef ptr @text_catenate(ptr noundef readonly captures(none) %0, ptr noundef readonly captures(none) %1) unnamed_addr #0 {
  %3 = load i8, ptr %0, align 1
  %4 = zext i8 %3 to i32
  %5 = icmp eq i8 %3, 1
  br i1 %5, label %6, label %15

6:                                                ; preds = %2
  %7 = getelementptr inbounds nuw i8, ptr %0, i64 1
  %8 = load i8, ptr %7, align 1
  %9 = icmp eq i8 %8, 1
  %10 = and i8 %8, -2
  %11 = icmp eq i8 %10, 2
  %or.cond = or i1 %9, %11
  %12 = icmp eq i8 %8, 18
  %13 = select i1 %12, i32 16, i32 0
  %14 = select i1 %or.cond, i32 8, i32 %13
  br label %24

15:                                               ; preds = %2
  %16 = and i32 %4, 1
  %.not = icmp eq i32 %16, 0
  br i1 %.not, label %20, label %17

17:                                               ; preds = %15
  %18 = lshr i32 %4, 1
  %19 = add nsw i32 %18, -1
  br label %24

20:                                               ; preds = %15
  %21 = load i32, ptr %0, align 4
  %22 = lshr i32 %21, 2
  %23 = add nsw i32 %22, -4
  br label %24

24:                                               ; preds = %17, %20, %6
  %25 = phi i32 [ %14, %6 ], [ %19, %17 ], [ %23, %20 ]
  %26 = load i8, ptr %1, align 1
  %27 = zext i8 %26 to i32
  %28 = icmp eq i8 %26, 1
  br i1 %28, label %29, label %38

29:                                               ; preds = %24
  %30 = getelementptr inbounds nuw i8, ptr %1, i64 1
  %31 = load i8, ptr %30, align 1
  %32 = icmp eq i8 %31, 1
  %33 = and i8 %31, -2
  %34 = icmp eq i8 %33, 2
  %or.cond47 = or i1 %32, %34
  %35 = icmp eq i8 %31, 18
  %36 = select i1 %35, i32 16, i32 0
  %37 = select i1 %or.cond47, i32 8, i32 %36
  br label %47

38:                                               ; preds = %24
  %39 = and i32 %27, 1
  %.not39 = icmp eq i32 %39, 0
  br i1 %.not39, label %43, label %40

40:                                               ; preds = %38
  %41 = lshr i32 %27, 1
  %42 = add nsw i32 %41, -1
  br label %47

43:                                               ; preds = %38
  %44 = load i32, ptr %1, align 4
  %45 = lshr i32 %44, 2
  %46 = add nsw i32 %45, -4
  br label %47

47:                                               ; preds = %40, %43, %29
  %48 = phi i32 [ %37, %29 ], [ %42, %40 ], [ %46, %43 ]
  %spec.store.select = tail call i32 @llvm.smax.i32(i32 %25, i32 0)
  %spec.store.select1 = tail call i32 @llvm.smax.i32(i32 %48, i32 0)
  %49 = add nuw nsw i32 %spec.store.select, 4
  %50 = add nuw nsw i32 %49, %spec.store.select1
  %51 = zext nneg i32 %50 to i64
  %52 = tail call ptr @palloc(i64 noundef %51) #19
  %53 = shl i32 %50, 2
  store i32 %53, ptr %52, align 4
  %54 = getelementptr inbounds nuw i8, ptr %52, i64 4
  %.not40 = icmp slt i32 %25, 1
  br i1 %.not40, label %60, label %55

55:                                               ; preds = %47
  %56 = load i8, ptr %0, align 1
  %57 = and i8 %56, 1
  %.not41 = icmp eq i8 %57, 0
  %.v = select i1 %.not41, i64 4, i64 1
  %58 = getelementptr inbounds nuw i8, ptr %0, i64 %.v
  %59 = zext nneg i32 %spec.store.select to i64
  tail call void @llvm.memcpy.p0.p0.i64(ptr nonnull align 1 %54, ptr nonnull align 1 %58, i64 %59, i1 false)
  br label %60

60:                                               ; preds = %55, %47
  %.not42 = icmp slt i32 %48, 1
  br i1 %.not42, label %68, label %61

61:                                               ; preds = %60
  %62 = zext nneg i32 %spec.store.select to i64
  %63 = getelementptr inbounds nuw i8, ptr %54, i64 %62
  %64 = load i8, ptr %1, align 1
  %65 = and i8 %64, 1
  %.not43 = icmp eq i8 %65, 0
  %.v44 = select i1 %.not43, i64 4, i64 1
  %66 = getelementptr inbounds nuw i8, ptr %1, i64 %.v44
  %67 = zext nneg i32 %spec.store.select1 to i64
  tail call void @llvm.memcpy.p0.p0.i64(ptr nonnull align 1 %63, ptr nonnull align 1 %66, i64 %67, i1 false)
  br label %68

68:                                               ; preds = %61, %60
  ret ptr %52
}